; Function Attrs: mustprogress nounwind uwtable
define dso_local void @_ZNK4llvm3opt8OptTable9printHelpERNS_11raw_ostreamEPKcS5_jjb(ptr noundef nonnull align 8 dereferenceable(88) %0, ptr noundef nonnull align 8 dereferenceable(48) %1, ptr noundef %2, ptr noundef %3, i32 noundef %4, i32 noundef %5, i1 noundef zeroext %6) local_unnamed_addr #1 align 2 {
  %8 = alloca %"class.std::function", align 8
  %9 = and i32 %5, 1
  %.not = icmp eq i32 %9, 0
  %10 = and i32 %5, -2
  %.sroa.2.0.insert.ext = zext i32 %10 to i64
  %.sroa.2.0.insert.shift = shl nuw i64 %.sroa.2.0.insert.ext, 32
  %.sroa.09.0.insert.ext = zext i32 %4 to i64
  %.sroa.09.0.insert.insert = or disjoint i64 %.sroa.2.0.insert.shift, %.sroa.09.0.insert.ext
  %11 = getelementptr inbounds nuw i8, ptr %8, i64 16
  %12 = getelementptr inbounds nuw i8, ptr %8, i64 24
  %13 = getelementptr inbounds nuw i8, ptr %8, i64 8
  store i64 0, ptr %13, align 8
  store i64 %.sroa.09.0.insert.insert, ptr %8, align 8
  store ptr @"_ZNSt17_Function_handlerIFbRKN4llvm3opt8OptTable4InfoEEZNKS2_9printHelpERNS0_11raw_ostreamEPKcSA_jjbE3$_0E9_M_invokeERKSt9_Any_dataS5_", ptr %12, align 8
  store ptr @"_ZNSt17_Function_handlerIFbRKN4llvm3opt8OptTable4InfoEEZNKS2_9printHelpERNS0_11raw_ostreamEPKcSA_jjbE3$_0E10_M_managerERSt9_Any_dataRKSD_St18_Manager_operation", ptr %11, align 8
  call void @_ZNK4llvm3opt8OptTable17internalPrintHelpERNS_11raw_ostreamEPKcS5_bbSt8functionIFbRKNS1_4InfoEEENS0_10VisibilityE(ptr noundef nonnull align 8 dereferenceable(88) %0, ptr noundef nonnull align 8 dereferenceable(48) %1, ptr noundef %2, ptr noundef %3, i1 noundef zeroext %.not, i1 noundef zeroext %6, ptr noundef nonnull %8, i32 0)
  %14 = load ptr, ptr %11, align 8
  %.not.i.i = icmp eq ptr %14, null
  br i1 %.not.i.i, label %_ZNSt8functionIFbRKN4llvm3opt8OptTable4InfoEEED2Ev.exit, label %15

15:                                               ; preds = %7
  %16 = call noundef zeroext i1 %14(ptr noundef nonnull align 8 dereferenceable(32) %8, ptr noundef nonnull align 8 dereferenceable(32) %8, i32 noundef 3) #22
  br label %_ZNSt8functionIFbRKN4llvm3opt8OptTable4InfoEEED2Ev.exit

_ZNSt8functionIFbRKN4llvm3opt8OptTable4InfoEEED2Ev.exit: ; preds = %7, %15
  ret void
}